; ModuleID = 'source-C-CXX/10/485.c'
source_filename = "source-C-CXX/10/485.c"
target datalayout = "e-m:e-p270:32:32-p271:32:32-p272:64:64-i64:64-f80:128-n8:16:32:64-S128"
target triple = "x86_64-pc-linux-gnu"

@__const.main.mon = private unnamed_addr constant [12 x i32] [i32 31, i32 28, i32 31, i32 30, i32 31, i32 30, i32 31, i32 31, i32 30, i32 31, i32 30, i32 31], align 16
@.str = private unnamed_addr constant [7 x i8] c"%d%d%d\00", align 1
@.str.1 = private unnamed_addr constant [4 x i8] c"%d\0A\00", align 1

; Function Attrs: nofree nounwind sspstrong uwtable
define dso_local i32 @main() local_unnamed_addr #0 {
  %1 = alloca i32, align 4
  %2 = alloca i32, align 4
  %3 = alloca i32, align 4
  %4 = alloca [12 x i32], align 16
  %5 = bitcast i32* %1 to i8*
  call void @llvm.lifetime.start.p0i8(i64 4, i8* nonnull %5) #5
  %6 = bitcast i32* %2 to i8*
  call void @llvm.lifetime.start.p0i8(i64 4, i8* nonnull %6) #5
  %7 = bitcast i32* %3 to i8*
  call void @llvm.lifetime.start.p0i8(i64 4, i8* nonnull %7) #5
  %8 = bitcast [12 x i32]* %4 to i8*
  call void @llvm.lifetime.start.p0i8(i64 48, i8* nonnull %8) #5
  call void @llvm.memcpy.p0i8.p0i8.i64(i8* noundef nonnull align 16 dereferenceable(48) %8, i8* noundef nonnull align 16 dereferenceable(48) bitcast ([12 x i32]* @__const.main.mon to i8*), i64 48, i1 false)
  %9 = call i32 (i8*, ...) @__isoc99_scanf(i8* getelementptr inbounds ([7 x i8], [7 x i8]* @.str, i64 0, i64 0), i32* nonnull %1, i32* nonnull %2, i32* nonnull %3)
  %10 = load i32, i32* %1, align 4, !tbaa !5
  %11 = and i32 %10, 3
  %12 = icmp ne i32 %11, 0
  %13 = srem i32 %10, 100
  %14 = icmp eq i32 %13, 0
  %15 = or i1 %12, %14
  br i1 %15, label %18, label %16

16:                                               ; preds = %0
  %17 = getelementptr inbounds [12 x i32], [12 x i32]* %4, i64 0, i64 1
  store i32 29, i32* %17, align 4, !tbaa !5
  br label %24

18:                                               ; preds = %0
  %19 = srem i32 %10, 400
  %20 = icmp eq i32 %19, 0
  %21 = getelementptr inbounds [12 x i32], [12 x i32]* %4, i64 0, i64 1
  br i1 %20, label %22, label %23

22:                                               ; preds = %18
  store i32 29, i32* %21, align 4, !tbaa !5
  br label %24

23:                                               ; preds = %18
  store i32 28, i32* %21, align 4, !tbaa !5
  br label %24

24:                                               ; preds = %22, %23, %16
  %25 = load i32, i32* %2, align 4, !tbaa !5
  %26 = icmp sgt i32 %25, 1
  br i1 %26, label %27, label %123

27:                                               ; preds = %24
  %28 = add nsw i32 %25, -1
  %29 = zext i32 %28 to i64
  %30 = icmp ult i32 %28, 8
  br i1 %30, label %112, label %31

31:                                               ; preds = %27
  %32 = and i64 %29, 4294967288
  %33 = add nsw i64 %32, -8
  %34 = lshr exact i64 %33, 3
  %35 = add nuw nsw i64 %34, 1
  %36 = and i64 %35, 3
  %37 = icmp ult i64 %33, 24
  br i1 %37, label %83, label %38

38:                                               ; preds = %31
  %39 = and i64 %35, 4611686018427387900
  br label %40

40:                                               ; preds = %40, %38
  %41 = phi i64 [ 0, %38 ], [ %80, %40 ]
  %42 = phi <4 x i32> [ zeroinitializer, %38 ], [ %78, %40 ]
  %43 = phi <4 x i32> [ zeroinitializer, %38 ], [ %79, %40 ]
  %44 = phi i64 [ %39, %38 ], [ %81, %40 ]
  %45 = getelementptr inbounds [12 x i32], [12 x i32]* %4, i64 0, i64 %41
  %46 = bitcast i32* %45 to <4 x i32>*
  %47 = load <4 x i32>, <4 x i32>* %46, align 16, !tbaa !5
  %48 = getelementptr inbounds i32, i32* %45, i64 4
  %49 = bitcast i32* %48 to <4 x i32>*
  %50 = load <4 x i32>, <4 x i32>* %49, align 16, !tbaa !5
  %51 = add <4 x i32> %47, %42
  %52 = add <4 x i32> %50, %43
  %53 = or i64 %41, 8
  %54 = getelementptr inbounds [12 x i32], [12 x i32]* %4, i64 0, i64 %53
  %55 = bitcast i32* %54 to <4 x i32>*
  %56 = load <4 x i32>, <4 x i32>* %55, align 16, !tbaa !5
  %57 = getelementptr inbounds i32, i32* %54, i64 4
  %58 = bitcast i32* %57 to <4 x i32>*
  %59 = load <4 x i32>, <4 x i32>* %58, align 16, !tbaa !5
  %60 = add <4 x i32> %56, %51
  %61 = add <4 x i32> %59, %52
  %62 = or i64 %41, 16
  %63 = getelementptr inbounds [12 x i32], [12 x i32]* %4, i64 0, i64 %62
  %64 = bitcast i32* %63 to <4 x i32>*
  %65 = load <4 x i32>, <4 x i32>* %64, align 16, !tbaa !5
  %66 = getelementptr inbounds i32, i32* %63, i64 4
  %67 = bitcast i32* %66 to <4 x i32>*
  %68 = load <4 x i32>, <4 x i32>* %67, align 16, !tbaa !5
  %69 = add <4 x i32> %65, %60
  %70 = add <4 x i32> %68, %61
  %71 = or i64 %41, 24
  %72 = getelementptr inbounds [12 x i32], [12 x i32]* %4, i64 0, i64 %71
  %73 = bitcast i32* %72 to <4 x i32>*
  %74 = load <4 x i32>, <4 x i32>* %73, align 16, !tbaa !5
  %75 = getelementptr inbounds i32, i32* %72, i64 4
  %76 = bitcast i32* %75 to <4 x i32>*
  %77 = load <4 x i32>, <4 x i32>* %76, align 16, !tbaa !5
  %78 = add <4 x i32> %74, %69
  %79 = add <4 x i32> %77, %70
  %80 = add nuw i64 %41, 32
  %81 = add i64 %44, -4
  %82 = icmp eq i64 %81, 0
  br i1 %82, label %83, label %40, !llvm.loop !9

83:                                               ; preds = %40, %31
  %84 = phi <4 x i32> [ undef, %31 ], [ %78, %40 ]
  %85 = phi <4 x i32> [ undef, %31 ], [ %79, %40 ]
  %86 = phi i64 [ 0, %31 ], [ %80, %40 ]
  %87 = phi <4 x i32> [ zeroinitializer, %31 ], [ %78, %40 ]
  %88 = phi <4 x i32> [ zeroinitializer, %31 ], [ %79, %40 ]
  %89 = icmp eq i64 %36, 0
  br i1 %89, label %106, label %90

90:                                               ; preds = %83, %90
  %91 = phi i64 [ %103, %90 ], [ %86, %83 ]
  %92 = phi <4 x i32> [ %101, %90 ], [ %87, %83 ]
  %93 = phi <4 x i32> [ %102, %90 ], [ %88, %83 ]
  %94 = phi i64 [ %104, %90 ], [ %36, %83 ]
  %95 = getelementptr inbounds [12 x i32], [12 x i32]* %4, i64 0, i64 %91
  %96 = bitcast i32* %95 to <4 x i32>*
  %97 = load <4 x i32>, <4 x i32>* %96, align 16, !tbaa !5
  %98 = getelementptr inbounds i32, i32* %95, i64 4
  %99 = bitcast i32* %98 to <4 x i32>*
  %100 = load <4 x i32>, <4 x i32>* %99, align 16, !tbaa !5
  %101 = add <4 x i32> %97, %92
  %102 = add <4 x i32> %100, %93
  %103 = add nuw i64 %91, 8
  %104 = add i64 %94, -1
  %105 = icmp eq i64 %104, 0
  br i1 %105, label %106, label %90, !llvm.loop !12

106:                                              ; preds = %90, %83
  %107 = phi <4 x i32> [ %84, %83 ], [ %101, %90 ]
  %108 = phi <4 x i32> [ %85, %83 ], [ %102, %90 ]
  %109 = add <4 x i32> %108, %107
  %110 = call i32 @llvm.vector.reduce.add.v4i32(<4 x i32> %109)
  %111 = icmp eq i64 %32, %29
  br i1 %111, label %123, label %112

112:                                              ; preds = %27, %106
  %113 = phi i64 [ 0, %27 ], [ %32, %106 ]
  %114 = phi i32 [ 0, %27 ], [ %110, %106 ]
  br label %115

115:                                              ; preds = %112, %115
  %116 = phi i64 [ %121, %115 ], [ %113, %112 ]
  %117 = phi i32 [ %120, %115 ], [ %114, %112 ]
  %118 = getelementptr inbounds [12 x i32], [12 x i32]* %4, i64 0, i64 %116
  %119 = load i32, i32* %118, align 4, !tbaa !5
  %120 = add nsw i32 %119, %117
  %121 = add nuw nsw i64 %116, 1
  %122 = icmp eq i64 %121, %29
  br i1 %122, label %123, label %115, !llvm.loop !14

123:                                              ; preds = %115, %106, %24
  %124 = phi i32 [ 0, %24 ], [ %110, %106 ], [ %120, %115 ]
  %125 = load i32, i32* %3, align 4, !tbaa !5
  %126 = add nsw i32 %125, %124
  %127 = call i32 (i8*, ...) @printf(i8* nonnull dereferenceable(1) getelementptr inbounds ([4 x i8], [4 x i8]* @.str.1, i64 0, i64 0), i32 %126)
  call void @llvm.lifetime.end.p0i8(i64 48, i8* nonnull %8) #5
  call void @llvm.lifetime.end.p0i8(i64 4, i8* nonnull %7) #5
  call void @llvm.lifetime.end.p0i8(i64 4, i8* nonnull %6) #5
  call void @llvm.lifetime.end.p0i8(i64 4, i8* nonnull %5) #5
  ret i32 0
}

; Function Attrs: argmemonly mustprogress nofree nosync nounwind willreturn
declare void @llvm.lifetime.start.p0i8(i64 immarg, i8* nocapture) #1

; Function Attrs: argmemonly mustprogress nofree nounwind willreturn
declare void @llvm.memcpy.p0i8.p0i8.i64(i8* noalias nocapture writeonly, i8* noalias nocapture readonly, i64, i1 immarg) #2

; Function Attrs: nofree nounwind
declare noundef i32 @__isoc99_scanf(i8* nocapture noundef readonly, ...) local_unnamed_addr #3

; Function Attrs: nofree nounwind
declare noundef i32 @printf(i8* nocapture noundef readonly, ...) local_unnamed_addr #3

; Function Attrs: argmemonly mustprogress nofree nosync nounwind willreturn
declare void @llvm.lifetime.end.p0i8(i64 immarg, i8* nocapture) #1

; Function Attrs: nofree nosync nounwind readnone willreturn
declare i32 @llvm.vector.reduce.add.v4i32(<4 x i32>) #4


!llvm.module.flags = !{!0, !1, !2, !3}
!llvm.ident = !{!4}

!0 = !{i32 1, !"wchar_size", i32 4}
!1 = !{i32 7, !"PIC Level", i32 2}
!2 = !{i32 7, !"PIE Level", i32 2}
!3 = !{i32 7, !"uwtable", i32 1}
!4 = !{!"clang version 13.0.0"}
!5 = !{!6, !6, i64 0}
!6 = !{!"int", !7, i64 0}
!7 = !{!"omnipotent char", !8, i64 0}
!8 = !{!"Simple C/C++ TBAA"}
!9 = distinct !{!9, !10, !11}
!10 = !{!"llvm.loop.mustprogress"}
!11 = !{!"llvm.loop.isvectorized", i32 1}
!12 = distinct !{!12, !13}
!13 = !{!"llvm.loop.unroll.disable"}
!14 = distinct !{!14, !10, !15, !11}
!15 = !{!"llvm.loop.unroll.runtime.disable"}
